target datalayout = "e-m:e-p270:32:32-p271:32:32-p272:64:64-i64:64-i128:128-f80:128-n8:16:32:64-S128"
target triple = "x86_64-pc-linux-gnu"

; Function Attrs: nounwind sspstrong uwtable
define internal i64 @range_minmax(i64 noundef %0) #0 {
  %2 = alloca i64, align 8
  %3 = alloca i64, align 8
  store i64 %0, ptr %3, align 8, !tbaa !7
  %4 = call i32 @rb_block_given_p()
  %5 = icmp ne i32 %4, 0
  br i1 %5, label %6, label %8

6:                                                ; preds = %1
  %7 = call i64 @rb_call_super(i32 noundef 0, ptr noundef null)
  store i64 %7, ptr %2, align 8
  br label %14

8:                                                ; preds = %1
  %9 = load i64, ptr %3, align 8, !tbaa !7
  %10 = call i64 (i64, i64, i32, ...) @rb_funcall(i64 noundef %9, i64 noundef 2753, i32 noundef 0)
  %11 = load i64, ptr %3, align 8, !tbaa !7
  %12 = call i64 (i64, i64, i32, ...) @rb_funcall(i64 noundef %11, i64 noundef 2737, i32 noundef 0)
  %13 = call i64 @rb_assoc_new(i64 noundef %10, i64 noundef %12)
  store i64 %13, ptr %2, align 8
  br label %14

14:                                               ; preds = %8, %6
  %15 = load i64, ptr %2, align 8
  ret i64 %15
}