; Function Attrs: nounwind sspstrong uwtable
define internal i64 @range_minmax(i64 noundef %0) #0 {
  %2 = tail call i32 @rb_block_given_p() #13
  %.not = icmp eq i32 %2, 0
  br i1 %.not, label %5, label %3

3:                                                ; preds = %1
  %4 = tail call i64 @rb_call_super(i32 noundef 0, ptr noundef null) #13
  br label %9

5:                                                ; preds = %1
  %6 = tail call i64 (i64, i64, i32, ...) @rb_funcall(i64 noundef %0, i64 noundef 2753, i32 noundef 0) #13
  %7 = tail call i64 (i64, i64, i32, ...) @rb_funcall(i64 noundef %0, i64 noundef 2737, i32 noundef 0) #13
  %8 = tail call i64 @rb_assoc_new(i64 noundef %6, i64 noundef %7) #13
  br label %9

9:                                                ; preds = %5, %3
  %.0 = phi i64 [ %4, %3 ], [ %8, %5 ]
  ret i64 %.0
}